; Function Attrs: mustprogress nounwind uwtable
define dso_local noundef ptr @_ZN4llvm17getAllocAlignmentEPKNS_8CallBaseEPKNS_17TargetLibraryInfoE(ptr noundef %0, ptr noundef %1) local_unnamed_addr #0 {
  %3 = alloca %"class.std::optional", align 4
  %4 = tail call fastcc noundef ptr @_ZL17getCalledFunctionPKN4llvm5ValueE(ptr noundef %0), !noalias !19
  %.not.i = icmp eq ptr %4, null
  br i1 %.not.i, label %_ZL17getAllocationDataPKN4llvm5ValueE9AllocTypePKNS_17TargetLibraryInfoE.exit.thread, label %_ZL17getAllocationDataPKN4llvm5ValueE9AllocTypePKNS_17TargetLibraryInfoE.exit

_ZL17getAllocationDataPKN4llvm5ValueE9AllocTypePKNS_17TargetLibraryInfoE.exit: ; preds = %2
  call fastcc void @_ZL28getAllocationDataForFunctionPKN4llvm8FunctionE9AllocTypePKNS_17TargetLibraryInfoE(ptr dead_on_unwind noalias nonnull writable align 4 %3, ptr noundef nonnull %4, i8 noundef zeroext 7, ptr noundef %1)
  %.phi.trans.insert = getelementptr inbounds nuw i8, ptr %3, i64 24
  %.pre = load i8, ptr %.phi.trans.insert, align 4
  %5 = trunc i8 %.pre to i1
  br i1 %5, label %6, label %_ZL17getAllocationDataPKN4llvm5ValueE9AllocTypePKNS_17TargetLibraryInfoE.exit.thread

6:                                                ; preds = %_ZL17getAllocationDataPKN4llvm5ValueE9AllocTypePKNS_17TargetLibraryInfoE.exit
  %7 = getelementptr inbounds nuw i8, ptr %3, i64 16
  %8 = load i32, ptr %7, align 4
  %9 = icmp sgt i32 %8, -1
  br i1 %9, label %10, label %_ZL17getAllocationDataPKN4llvm5ValueE9AllocTypePKNS_17TargetLibraryInfoE.exit.thread

10:                                               ; preds = %6
  %11 = getelementptr inbounds nuw i8, ptr %0, i64 4
  %12 = load i32, ptr %11, align 4
  %13 = and i32 %12, 134217727
  %14 = zext nneg i32 %13 to i64
  %15 = sub nsw i64 0, %14
  %16 = getelementptr inbounds %"class.llvm::Use", ptr %0, i64 %15
  %17 = zext nneg i32 %8 to i64
  %18 = getelementptr inbounds %"class.llvm::Use", ptr %16, i64 %17
  %19 = load ptr, ptr %18, align 8
  br label %21

_ZL17getAllocationDataPKN4llvm5ValueE9AllocTypePKNS_17TargetLibraryInfoE.exit.thread: ; preds = %2, %6, %_ZL17getAllocationDataPKN4llvm5ValueE9AllocTypePKNS_17TargetLibraryInfoE.exit
  %20 = tail call noundef ptr @_ZNK4llvm8CallBase26getArgOperandWithAttributeENS_9Attribute8AttrKindE(ptr noundef nonnull align 8 dereferenceable(88) %0, i32 noundef 1) #20
  br label %21

21:                                               ; preds = %_ZL17getAllocationDataPKN4llvm5ValueE9AllocTypePKNS_17TargetLibraryInfoE.exit.thread, %10
  %.0 = phi ptr [ %19, %10 ], [ %20, %_ZL17getAllocationDataPKN4llvm5ValueE9AllocTypePKNS_17TargetLibraryInfoE.exit.thread ]
  ret ptr %.0
}